target datalayout = "e-m:e-p270:32:32-p271:32:32-p272:64:64-i64:64-i128:128-f80:128-n8:16:32:64-S128"
target triple = "x86_64-pc-linux-gnu"

%"union.absl::lts_20240722::internal_any_invocable::TypeErasedState" = type { %struct.anon }
%struct.anon = type { ptr, i64 }
%"class.absl::lts_20240722::AnyInvocable" = type { %"class.absl::lts_20240722::internal_any_invocable::Impl" }
%"class.absl::lts_20240722::internal_any_invocable::Impl" = type { %"class.absl::lts_20240722::internal_any_invocable::CoreImpl" }
%"class.absl::lts_20240722::internal_any_invocable::CoreImpl" = type { %"union.absl::lts_20240722::internal_any_invocable::TypeErasedState", ptr, ptr }
%"class.std::vector" = type { %"struct.std::_Vector_base" }
%"struct.std::_Vector_base" = type { %"struct.std::_Vector_base<grpc_event_engine::experimental::EventEngine::ResolvedAddress, std::allocator<grpc_event_engine::experimental::EventEngine::ResolvedAddress>>::_Vector_impl" }
%"struct.std::_Vector_base<grpc_event_engine::experimental::EventEngine::ResolvedAddress, std::allocator<grpc_event_engine::experimental::EventEngine::ResolvedAddress>>::_Vector_impl" = type { %"struct.std::_Vector_base<grpc_event_engine::experimental::EventEngine::ResolvedAddress, std::allocator<grpc_event_engine::experimental::EventEngine::ResolvedAddress>>::_Vector_impl_data" }
%"struct.std::_Vector_base<grpc_event_engine::experimental::EventEngine::ResolvedAddress, std::allocator<grpc_event_engine::experimental::EventEngine::ResolvedAddress>>::_Vector_impl_data" = type { ptr, ptr, ptr }
%class.anon.59 = type { %"class.absl::lts_20240722::AnyInvocable", %"class.std::vector", [8 x i8] }

; Function Attrs: mustprogress nounwind uwtable
define linkonce_odr void @_ZNSt15__new_allocatorIN17grpc_event_engine12experimental11EventEngine15ResolvedAddressEE10deallocateEPS3_m(ptr noundef nonnull align 1 dereferenceable(1) %0, ptr noundef %1, i64 noundef %2) #7 comdat align 2 {
  %4 = alloca ptr, align 8
  %5 = alloca ptr, align 8
  %6 = alloca i64, align 8
  store ptr %0, ptr %4, align 8, !tbaa !519
  store ptr %1, ptr %5, align 8, !tbaa !540
  store i64 %2, ptr %6, align 8, !tbaa !30
  %7 = load ptr, ptr %5, align 8, !tbaa !540
  %8 = load i64, ptr %6, align 8, !tbaa !30
  %9 = mul i64 %8, 132
  call void @_ZdlPvm(ptr noundef %7, i64 noundef %9) #35
  ret void
}

; Function Attrs: mustprogress uwtable
define linkonce_odr void @_ZNSt16allocator_traitsISaIN17grpc_event_engine12experimental11EventEngine15ResolvedAddressEEE10deallocateERS4_PS3_m(ptr noundef nonnull align 1 dereferenceable(1) %0, ptr noundef %1, i64 noundef %2) #4 comdat align 2 {
  %4 = alloca ptr, align 8
  %5 = alloca ptr, align 8
  %6 = alloca i64, align 8
  store ptr %0, ptr %4, align 8, !tbaa !515
  store ptr %1, ptr %5, align 8, !tbaa !540
  store i64 %2, ptr %6, align 8, !tbaa !30
  %7 = load ptr, ptr %4, align 8, !tbaa !515
  %8 = load ptr, ptr %5, align 8, !tbaa !540
  %9 = load i64, ptr %6, align 8, !tbaa !30
  call void @_ZNSt15__new_allocatorIN17grpc_event_engine12experimental11EventEngine15ResolvedAddressEE10deallocateEPS3_m(ptr noundef nonnull align 1 dereferenceable(1) %7, ptr noundef %8, i64 noundef %9)
  ret void
}

; Function Attrs: mustprogress nounwind uwtable
define linkonce_odr void @_ZNSt12_Destroy_auxILb1EE9__destroyIPN17grpc_event_engine12experimental11EventEngine15ResolvedAddressEEEvT_S7_(ptr noundef %0, ptr noundef %1) #7 comdat align 2 {
  %3 = alloca ptr, align 8
  %4 = alloca ptr, align 8
  store ptr %0, ptr %3, align 8, !tbaa !540
  store ptr %1, ptr %4, align 8, !tbaa !540
  ret void
}

; Function Attrs: mustprogress nounwind uwtable
define linkonce_odr void @_ZNSt15__new_allocatorIN17grpc_event_engine12experimental11EventEngine15ResolvedAddressEED2Ev(ptr noundef nonnull align 1 dereferenceable(1) %0) unnamed_addr #7 comdat align 2 {
  %2 = alloca ptr, align 8
  store ptr %0, ptr %2, align 8, !tbaa !519
  ret void
}

; Function Attrs: mustprogress uwtable
define linkonce_odr void @_ZNSt12_Vector_baseIN17grpc_event_engine12experimental11EventEngine15ResolvedAddressESaIS3_EE13_M_deallocateEPS3_m(ptr noundef nonnull align 8 dereferenceable(24) %0, ptr noundef %1, i64 noundef %2) #4 comdat align 2 {
  %4 = alloca ptr, align 8
  %5 = alloca ptr, align 8
  %6 = alloca i64, align 8
  store ptr %0, ptr %4, align 8, !tbaa !511
  store ptr %1, ptr %5, align 8, !tbaa !540
  store i64 %2, ptr %6, align 8, !tbaa !30
  %7 = load ptr, ptr %4, align 8
  %8 = load ptr, ptr %5, align 8, !tbaa !540
  %9 = icmp ne ptr %8, null
  br i1 %9, label %10, label %14

10:                                               ; preds = %3
  %11 = getelementptr inbounds nuw %"struct.std::_Vector_base", ptr %7, i32 0, i32 0
  %12 = load ptr, ptr %5, align 8, !tbaa !540
  %13 = load i64, ptr %6, align 8, !tbaa !30
  call void @_ZNSt16allocator_traitsISaIN17grpc_event_engine12experimental11EventEngine15ResolvedAddressEEE10deallocateERS4_PS3_m(ptr noundef nonnull align 1 dereferenceable(1) %11, ptr noundef %12, i64 noundef %13)
  br label %14

14:                                               ; preds = %10, %3
  ret void
}

; Function Attrs: inlinehint mustprogress uwtable
define linkonce_odr void @_ZSt8_DestroyIPN17grpc_event_engine12experimental11EventEngine15ResolvedAddressEEvT_S5_(ptr noundef %0, ptr noundef %1) #12 comdat {
  %3 = alloca ptr, align 8
  %4 = alloca ptr, align 8
  store ptr %0, ptr %3, align 8, !tbaa !540
  store ptr %1, ptr %4, align 8, !tbaa !540
  %5 = load ptr, ptr %3, align 8, !tbaa !540
  %6 = load ptr, ptr %4, align 8, !tbaa !540
  call void @_ZNSt12_Destroy_auxILb1EE9__destroyIPN17grpc_event_engine12experimental11EventEngine15ResolvedAddressEEEvT_S7_(ptr noundef %5, ptr noundef %6)
  ret void
}

; Function Attrs: noinline noreturn nounwind uwtable
define linkonce_odr hidden void @__clang_call_terminate(ptr noundef %0) #15 comdat {
  %2 = call ptr @__cxa_begin_catch(ptr %0) #3
  call void @_ZSt9terminatev() #33
  unreachable
}

; Function Attrs: mustprogress nounwind uwtable
define linkonce_odr void @_ZNSt12_Vector_baseIN17grpc_event_engine12experimental11EventEngine15ResolvedAddressESaIS3_EED2Ev(ptr noundef nonnull align 8 dereferenceable(24) %0) unnamed_addr #7 comdat align 2 personality ptr @__gxx_personality_v0 {
  %2 = alloca ptr, align 8
  store ptr %0, ptr %2, align 8, !tbaa !511
  %3 = load ptr, ptr %2, align 8
  %4 = getelementptr inbounds nuw %"struct.std::_Vector_base", ptr %3, i32 0, i32 0
  %5 = getelementptr inbounds nuw %"struct.std::_Vector_base<grpc_event_engine::experimental::EventEngine::ResolvedAddress, std::allocator<grpc_event_engine::experimental::EventEngine::ResolvedAddress>>::_Vector_impl_data", ptr %4, i32 0, i32 0
  %6 = load ptr, ptr %5, align 8, !tbaa !203
  %7 = getelementptr inbounds nuw %"struct.std::_Vector_base", ptr %3, i32 0, i32 0
  %8 = getelementptr inbounds nuw %"struct.std::_Vector_base<grpc_event_engine::experimental::EventEngine::ResolvedAddress, std::allocator<grpc_event_engine::experimental::EventEngine::ResolvedAddress>>::_Vector_impl_data", ptr %7, i32 0, i32 2
  %9 = load ptr, ptr %8, align 8, !tbaa !202
  %10 = getelementptr inbounds nuw %"struct.std::_Vector_base", ptr %3, i32 0, i32 0
  %11 = getelementptr inbounds nuw %"struct.std::_Vector_base<grpc_event_engine::experimental::EventEngine::ResolvedAddress, std::allocator<grpc_event_engine::experimental::EventEngine::ResolvedAddress>>::_Vector_impl_data", ptr %10, i32 0, i32 0
  %12 = load ptr, ptr %11, align 8, !tbaa !203
  %13 = ptrtoint ptr %9 to i64
  %14 = ptrtoint ptr %12 to i64
  %15 = sub i64 %13, %14
  %16 = sdiv exact i64 %15, 132
  invoke void @_ZNSt12_Vector_baseIN17grpc_event_engine12experimental11EventEngine15ResolvedAddressESaIS3_EE13_M_deallocateEPS3_m(ptr noundef nonnull align 8 dereferenceable(24) %3, ptr noundef %6, i64 noundef %16)
          to label %17 unwind label %19

17:                                               ; preds = %1
  %18 = getelementptr inbounds nuw %"struct.std::_Vector_base", ptr %3, i32 0, i32 0
  call void @_ZNSt15__new_allocatorIN17grpc_event_engine12experimental11EventEngine15ResolvedAddressEED2Ev(ptr noundef nonnull align 8 dereferenceable(24) %18) #3
  ret void

19:                                               ; preds = %1
  %20 = landingpad { ptr, i32 }
          catch ptr null
  %21 = extractvalue { ptr, i32 } %20, 0
  call void @__clang_call_terminate(ptr %21) #33
  unreachable
}

; Function Attrs: inlinehint mustprogress uwtable
define linkonce_odr void @_ZSt8_DestroyIPN17grpc_event_engine12experimental11EventEngine15ResolvedAddressES3_EvT_S5_RSaIT0_E(ptr noundef %0, ptr noundef %1, ptr noundef nonnull align 1 dereferenceable(1) %2) #12 comdat {
  %4 = alloca ptr, align 8
  %5 = alloca ptr, align 8
  %6 = alloca ptr, align 8
  store ptr %0, ptr %4, align 8, !tbaa !540
  store ptr %1, ptr %5, align 8, !tbaa !540
  store ptr %2, ptr %6, align 8, !tbaa !515
  %7 = load ptr, ptr %4, align 8, !tbaa !540
  %8 = load ptr, ptr %5, align 8, !tbaa !540
  call void @_ZSt8_DestroyIPN17grpc_event_engine12experimental11EventEngine15ResolvedAddressEEvT_S5_(ptr noundef %7, ptr noundef %8)
  ret void
}

; Function Attrs: mustprogress nounwind uwtable
define linkonce_odr noundef nonnull align 1 dereferenceable(1) ptr @_ZNSt12_Vector_baseIN17grpc_event_engine12experimental11EventEngine15ResolvedAddressESaIS3_EE19_M_get_Tp_allocatorEv(ptr noundef nonnull align 8 dereferenceable(24) %0) #7 comdat align 2 {
  %2 = alloca ptr, align 8
  store ptr %0, ptr %2, align 8, !tbaa !511
  %3 = load ptr, ptr %2, align 8
  %4 = getelementptr inbounds nuw %"struct.std::_Vector_base", ptr %3, i32 0, i32 0
  ret ptr %4
}

; Function Attrs: mustprogress nounwind uwtable
define linkonce_odr void @_ZN4absl12lts_2024072222internal_any_invocable8CoreImplILb0EvJNS0_8StatusOrISt6vectorIN17grpc_event_engine12experimental11EventEngine15ResolvedAddressESaIS8_EEEEEED2Ev(ptr noundef nonnull align 16 dereferenceable(32) %0) unnamed_addr #7 comdat align 2 {
  %2 = alloca ptr, align 8
  store ptr %0, ptr %2, align 8, !tbaa !184
  %3 = load ptr, ptr %2, align 8
  %4 = getelementptr inbounds nuw %"class.absl::lts_20240722::internal_any_invocable::CoreImpl", ptr %3, i32 0, i32 1
  %5 = load ptr, ptr %4, align 16, !tbaa !186
  %6 = getelementptr inbounds nuw %"class.absl::lts_20240722::internal_any_invocable::CoreImpl", ptr %3, i32 0, i32 0
  %7 = getelementptr inbounds nuw %"class.absl::lts_20240722::internal_any_invocable::CoreImpl", ptr %3, i32 0, i32 0
  call void %5(i1 noundef zeroext true, ptr noundef %6, ptr noundef %7) #3
  ret void
}

; Function Attrs: mustprogress nounwind uwtable
define linkonce_odr void @_ZNSt6vectorIN17grpc_event_engine12experimental11EventEngine15ResolvedAddressESaIS3_EED2Ev(ptr noundef nonnull align 8 dereferenceable(24) %0) unnamed_addr #7 comdat align 2 personality ptr @__gxx_personality_v0 {
  %2 = alloca ptr, align 8
  store ptr %0, ptr %2, align 8, !tbaa !197
  %3 = load ptr, ptr %2, align 8
  %4 = getelementptr inbounds nuw %"struct.std::_Vector_base", ptr %3, i32 0, i32 0
  %5 = getelementptr inbounds nuw %"struct.std::_Vector_base<grpc_event_engine::experimental::EventEngine::ResolvedAddress, std::allocator<grpc_event_engine::experimental::EventEngine::ResolvedAddress>>::_Vector_impl_data", ptr %4, i32 0, i32 0
  %6 = load ptr, ptr %5, align 8, !tbaa !203
  %7 = getelementptr inbounds nuw %"struct.std::_Vector_base", ptr %3, i32 0, i32 0
  %8 = getelementptr inbounds nuw %"struct.std::_Vector_base<grpc_event_engine::experimental::EventEngine::ResolvedAddress, std::allocator<grpc_event_engine::experimental::EventEngine::ResolvedAddress>>::_Vector_impl_data", ptr %7, i32 0, i32 1
  %9 = load ptr, ptr %8, align 8, !tbaa !201
  %10 = call noundef nonnull align 1 dereferenceable(1) ptr @_ZNSt12_Vector_baseIN17grpc_event_engine12experimental11EventEngine15ResolvedAddressESaIS3_EE19_M_get_Tp_allocatorEv(ptr noundef nonnull align 8 dereferenceable(24) %3) #3
  invoke void @_ZSt8_DestroyIPN17grpc_event_engine12experimental11EventEngine15ResolvedAddressES3_EvT_S5_RSaIT0_E(ptr noundef %6, ptr noundef %9, ptr noundef nonnull align 1 dereferenceable(1) %10)
          to label %11 unwind label %12

11:                                               ; preds = %1
  call void @_ZNSt12_Vector_baseIN17grpc_event_engine12experimental11EventEngine15ResolvedAddressESaIS3_EED2Ev(ptr noundef nonnull align 8 dereferenceable(24) %3) #3
  ret void

12:                                               ; preds = %1
  %13 = landingpad { ptr, i32 }
          catch ptr null
  %14 = extractvalue { ptr, i32 } %13, 0
  call void @__clang_call_terminate(ptr %14) #33
  unreachable
}

; Function Attrs: inlinehint mustprogress nounwind uwtable
define internal void @"_ZZN17grpc_event_engine12experimental12AresResolver14LookupHostnameEN4absl12lts_2024072212AnyInvocableIFvNS3_8StatusOrISt6vectorINS0_11EventEngine15ResolvedAddressESaIS8_EEEEEEESt17basic_string_viewIcSt11char_traitsIcEESH_EN3$_4D2Ev"(ptr noundef nonnull align 16 dereferenceable(56) %0) unnamed_addr #10 align 2 {
  %2 = alloca ptr, align 8
  store ptr %0, ptr %2, align 8, !tbaa !24
  %3 = load ptr, ptr %2, align 8
  %4 = getelementptr inbounds nuw %class.anon.59, ptr %3, i32 0, i32 1
  call void @_ZNSt6vectorIN17grpc_event_engine12experimental11EventEngine15ResolvedAddressESaIS3_EED2Ev(ptr noundef nonnull align 8 dereferenceable(24) %4) #3
  %5 = getelementptr inbounds nuw %class.anon.59, ptr %3, i32 0, i32 0
  call void @_ZN4absl12lts_2024072222internal_any_invocable8CoreImplILb0EvJNS0_8StatusOrISt6vectorIN17grpc_event_engine12experimental11EventEngine15ResolvedAddressESaIS8_EEEEEED2Ev(ptr noundef nonnull align 16 dereferenceable(32) %5) #3
  ret void
}

; Function Attrs: mustprogress nounwind uwtable
define internal void @"_ZN4absl12lts_2024072222internal_any_invocable23RemoteManagerNontrivialIZN17grpc_event_engine12experimental12AresResolver14LookupHostnameENS0_12AnyInvocableIFvNS0_8StatusOrISt6vectorINS4_11EventEngine15ResolvedAddressESaISA_EEEEEEESt17basic_string_viewIcSt11char_traitsIcEESJ_E3$_4EEvNS1_14FunctionToCallEPNS1_15TypeErasedStateESN_"(i1 noundef zeroext %0, ptr noundef %1, ptr noundef %2) #7 {
  %4 = alloca i8, align 1
  %5 = alloca ptr, align 8
  %6 = alloca ptr, align 8
  %7 = zext i1 %0 to i8
  store i8 %7, ptr %4, align 1, !tbaa !507
  store ptr %1, ptr %5, align 8, !tbaa !509
  store ptr %2, ptr %6, align 8, !tbaa !509
  %8 = load i8, ptr %4, align 1, !tbaa !507, !range !21, !noundef !22
  %9 = trunc i8 %8 to i1
  switch i1 %9, label %23 [
    i1 false, label %10
    i1 true, label %16
  ]

10:                                               ; preds = %3
  %11 = load ptr, ptr %5, align 8, !tbaa !509
  %12 = getelementptr inbounds nuw %struct.anon, ptr %11, i32 0, i32 0
  %13 = load ptr, ptr %12, align 16, !tbaa !133
  %14 = load ptr, ptr %6, align 8, !tbaa !509
  %15 = getelementptr inbounds nuw %struct.anon, ptr %14, i32 0, i32 0
  store ptr %13, ptr %15, align 16, !tbaa !133
  br label %26

16:                                               ; preds = %3
  %17 = load ptr, ptr %5, align 8, !tbaa !509
  %18 = getelementptr inbounds nuw %struct.anon, ptr %17, i32 0, i32 0
  %19 = load ptr, ptr %18, align 16, !tbaa !133
  %20 = icmp eq ptr %19, null
  br i1 %20, label %22, label %21

21:                                               ; preds = %16
  call void @"_ZZN17grpc_event_engine12experimental12AresResolver14LookupHostnameEN4absl12lts_2024072212AnyInvocableIFvNS3_8StatusOrISt6vectorINS0_11EventEngine15ResolvedAddressESaIS8_EEEEEEESt17basic_string_viewIcSt11char_traitsIcEESH_EN3$_4D2Ev"(ptr noundef nonnull align 16 dereferenceable(56) %19) #3
  call void @_ZdlPvm(ptr noundef %19, i64 noundef 64) #35
  br label %22

22:                                               ; preds = %21, %16
  br label %26

23:                                               ; preds = %3
  br label %24

24:                                               ; preds = %23
  unreachable

25:                                               ; No predecessors!
  br label %26

26:                                               ; preds = %10, %22, %25
  ret void
}